; Function Attrs: mustprogress uwtable
define void @_ZN7rocksdb22TransactionDBMutexImpl4LockEv(ptr noalias nocapture writeonly sret(%"class.rocksdb::Status") align 8 %agg.result, ptr noundef nonnull align 8 dereferenceable(48) %this) unnamed_addr #0 align 2 personality ptr @__gxx_personality_v0 {
entry:
  %mutex_ = getelementptr inbounds i8, ptr %this, i64 8
  %call1.i.i = tail call noundef i32 @pthread_mutex_lock(ptr noundef nonnull %mutex_) #11
  %tobool.not.i = icmp eq i32 %call1.i.i, 0
  br i1 %tobool.not.i, label %_ZNSt5mutex4lockEv.exit, label %if.then.i

if.then.i:                                        ; preds = %entry
  tail call void @_ZSt20__throw_system_errori(i32 noundef %call1.i.i) #12
  unreachable

_ZNSt5mutex4lockEv.exit:                          ; preds = %entry
  %state_.i.i = getelementptr inbounds i8, ptr %agg.result, i64 8
  store ptr null, ptr %state_.i.i, align 8, !alias.scope !4
  tail call void @llvm.memset.p0.i64(ptr noundef nonnull align 8 dereferenceable(6) %agg.result, i8 0, i64 6, i1 false), !alias.scope !4
  ret void
}